; Function Attrs: mustprogress uwtable
define void @_ZN10OpenSubdiv6v3_6_03Vtr8internal5Level27completeFVarChannelTopologyEii(ptr noundef nonnull readonly align 8 captures(none) dereferenceable(480) %0, i32 noundef %1, i32 noundef %2) local_unnamed_addr #7 align 2 {
  %4 = getelementptr inbounds nuw i8, ptr %0, i64 456
  %5 = sext i32 %1 to i64
  %6 = load ptr, ptr %4, align 8
  %7 = getelementptr inbounds ptr, ptr %6, i64 %5
  %8 = load ptr, ptr %7, align 8
  tail call void @_ZN10OpenSubdiv6v3_6_03Vtr8internal9FVarLevel30completeTopologyFromFaceValuesEi(ptr noundef nonnull align 8 dereferenceable(216) %8, i32 noundef %2)
  ret void
}